; ModuleID = 'source-C-CXX/27/1299.c'
source_filename = "source-C-CXX/27/1299.c"
target datalayout = "e-m:e-p270:32:32-p271:32:32-p272:64:64-i64:64-f80:128-n8:16:32:64-S128"
target triple = "x86_64-pc-linux-gnu"

@.str = private unnamed_addr constant [3 x i8] c"%d\00", align 1
@.str.1 = private unnamed_addr constant [4 x i8] c",%d\00", align 1

; Function Attrs: nounwind sspstrong uwtable
define dso_local void @main() local_unnamed_addr #0 {
  %1 = alloca [10000 x i8], align 16
  %2 = alloca [300 x i32], align 16
  %3 = bitcast [300 x i32]* %2 to i8*
  %4 = getelementptr inbounds [10000 x i8], [10000 x i8]* %1, i64 0, i64 0
  call void @llvm.lifetime.start.p0i8(i64 10000, i8* nonnull %4) #5
  call void @llvm.lifetime.start.p0i8(i64 1200, i8* nonnull %3) #5
  %5 = call i32 (i8*, ...) bitcast (i32 (...)* @gets to i32 (i8*, ...)*)(i8* nonnull %4) #5
  call void @llvm.memset.p0i8.i64(i8* noundef nonnull align 16 dereferenceable(1200) %3, i8 0, i64 1200, i1 false)
  br label %6

6:                                                ; preds = %0, %21
  %7 = phi i64 [ 0, %0 ], [ %24, %21 ]
  %8 = phi i32 [ 0, %0 ], [ %22, %21 ]
  %9 = phi i32 [ 1, %0 ], [ %23, %21 ]
  %10 = getelementptr inbounds [10000 x i8], [10000 x i8]* %1, i64 0, i64 %7
  %11 = load i8, i8* %10, align 1, !tbaa !5
  switch i8 %11, label %12 [
    i8 0, label %25
    i8 32, label %17
  ]

12:                                               ; preds = %6
  %13 = sext i32 %8 to i64
  %14 = getelementptr inbounds [300 x i32], [300 x i32]* %2, i64 0, i64 %13
  %15 = load i32, i32* %14, align 4, !tbaa !8
  %16 = add nsw i32 %15, 1
  store i32 %16, i32* %14, align 4, !tbaa !8
  br label %21

17:                                               ; preds = %6
  %18 = icmp eq i32 %9, 1
  %19 = zext i1 %18 to i32
  %20 = add nsw i32 %8, %19
  br label %21

21:                                               ; preds = %17, %12
  %22 = phi i32 [ %8, %12 ], [ %20, %17 ]
  %23 = phi i32 [ 1, %12 ], [ 0, %17 ]
  %24 = add nuw i64 %7, 1
  br label %6, !llvm.loop !10

25:                                               ; preds = %6
  %26 = getelementptr inbounds [300 x i32], [300 x i32]* %2, i64 0, i64 0
  %27 = load i32, i32* %26, align 16, !tbaa !8
  %28 = call i32 (i8*, ...) @printf(i8* nonnull dereferenceable(1) getelementptr inbounds ([3 x i8], [3 x i8]* @.str, i64 0, i64 0), i32 %27)
  %29 = icmp slt i32 %8, 1
  br i1 %29, label %40, label %30

30:                                               ; preds = %25
  %31 = add nuw i32 %8, 1
  %32 = zext i32 %31 to i64
  br label %33

33:                                               ; preds = %30, %33
  %34 = phi i64 [ 1, %30 ], [ %38, %33 ]
  %35 = getelementptr inbounds [300 x i32], [300 x i32]* %2, i64 0, i64 %34
  %36 = load i32, i32* %35, align 4, !tbaa !8
  %37 = call i32 (i8*, ...) @printf(i8* nonnull dereferenceable(1) getelementptr inbounds ([4 x i8], [4 x i8]* @.str.1, i64 0, i64 0), i32 %36)
  %38 = add nuw nsw i64 %34, 1
  %39 = icmp eq i64 %38, %32
  br i1 %39, label %40, label %33, !llvm.loop !12

40:                                               ; preds = %33, %25
  call void @llvm.lifetime.end.p0i8(i64 1200, i8* nonnull %3) #5
  call void @llvm.lifetime.end.p0i8(i64 10000, i8* nonnull %4) #5
  ret void
}

; Function Attrs: argmemonly mustprogress nofree nosync nounwind willreturn
declare void @llvm.lifetime.start.p0i8(i64 immarg, i8* nocapture) #1

declare i32 @gets(...) local_unnamed_addr #2

; Function Attrs: nofree nounwind
declare noundef i32 @printf(i8* nocapture noundef readonly, ...) local_unnamed_addr #3

; Function Attrs: argmemonly mustprogress nofree nosync nounwind willreturn
declare void @llvm.lifetime.end.p0i8(i64 immarg, i8* nocapture) #1

; Function Attrs: argmemonly nofree nounwind willreturn writeonly
declare void @llvm.memset.p0i8.i64(i8* nocapture writeonly, i8, i64, i1 immarg) #4


!llvm.module.flags = !{!0, !1, !2, !3}
!llvm.ident = !{!4}

!0 = !{i32 1, !"wchar_size", i32 4}
!1 = !{i32 7, !"PIC Level", i32 2}
!2 = !{i32 7, !"PIE Level", i32 2}
!3 = !{i32 7, !"uwtable", i32 1}
!4 = !{!"clang version 13.0.0"}
!5 = !{!6, !6, i64 0}
!6 = !{!"omnipotent char", !7, i64 0}
!7 = !{!"Simple C/C++ TBAA"}
!8 = !{!9, !9, i64 0}
!9 = !{!"int", !6, i64 0}
!10 = distinct !{!10, !11}
!11 = !{!"llvm.loop.mustprogress"}
!12 = distinct !{!12, !11}
